; ModuleID = '63/660.c'
source_filename = "63/660.c"
target datalayout = "e-m:e-p270:32:32-p271:32:32-p272:64:64-i64:64-f80:128-n8:16:32:64-S128"
target triple = "x86_64-pc-linux-gnu"

@.str = private unnamed_addr constant [6 x i8] c"%d %d\00", align 1
@.str.1 = private unnamed_addr constant [3 x i8] c"%d\00", align 1
@.str.2 = private unnamed_addr constant [4 x i8] c" %d\00", align 1
@.str.3 = private unnamed_addr constant [2 x i8] c"\0A\00", align 1

; Function Attrs: noinline nounwind uwtable
define dso_local i32 @main() #0 {
  %1 = alloca i32, align 4
  %2 = alloca [100 x [100 x i32]], align 16
  %3 = alloca [100 x [100 x i32]], align 16
  %4 = alloca i32, align 4
  %5 = alloca i32, align 4
  %6 = alloca i32, align 4
  %7 = alloca i32, align 4
  %8 = alloca i32, align 4
  %9 = alloca i32, align 4
  %10 = alloca i32, align 4
  %11 = alloca i32, align 4
  %12 = alloca i32, align 4
  store i32 0, i32* %1, align 4
  store i32 0, i32* %10, align 4
  store i32 0, i32* %12, align 4
  %13 = call i32 (i8*, ...) @__isoc99_scanf(i8* getelementptr inbounds ([6 x i8], [6 x i8]* @.str, i64 0, i64 0), i32* %4, i32* %5)
  store i32 0, i32* %8, align 4
  br label %14

14:                                               ; preds = %35, %0
  %15 = load i32, i32* %8, align 4
  %16 = load i32, i32* %4, align 4
  %17 = icmp slt i32 %15, %16
  br i1 %17, label %18, label %38

18:                                               ; preds = %14
  store i32 0, i32* %9, align 4
  br label %19

19:                                               ; preds = %31, %18
  %20 = load i32, i32* %9, align 4
  %21 = load i32, i32* %5, align 4
  %22 = icmp slt i32 %20, %21
  br i1 %22, label %23, label %34

23:                                               ; preds = %19
  %24 = load i32, i32* %8, align 4
  %25 = sext i32 %24 to i64
  %26 = getelementptr inbounds [100 x [100 x i32]], [100 x [100 x i32]]* %2, i64 0, i64 %25
  %27 = load i32, i32* %9, align 4
  %28 = sext i32 %27 to i64
  %29 = getelementptr inbounds [100 x i32], [100 x i32]* %26, i64 0, i64 %28
  %30 = call i32 (i8*, ...) @__isoc99_scanf(i8* getelementptr inbounds ([3 x i8], [3 x i8]* @.str.1, i64 0, i64 0), i32* %29)
  br label %31

31:                                               ; preds = %23
  %32 = load i32, i32* %9, align 4
  %33 = add nsw i32 %32, 1
  store i32 %33, i32* %9, align 4
  br label %19

34:                                               ; preds = %19
  br label %35

35:                                               ; preds = %34
  %36 = load i32, i32* %8, align 4
  %37 = add nsw i32 %36, 1
  store i32 %37, i32* %8, align 4
  br label %14

38:                                               ; preds = %14
  %39 = call i32 (i8*, ...) @__isoc99_scanf(i8* getelementptr inbounds ([6 x i8], [6 x i8]* @.str, i64 0, i64 0), i32* %6, i32* %7)
  store i32 0, i32* %8, align 4
  br label %40

40:                                               ; preds = %61, %38
  %41 = load i32, i32* %8, align 4
  %42 = load i32, i32* %6, align 4
  %43 = icmp slt i32 %41, %42
  br i1 %43, label %44, label %64

44:                                               ; preds = %40
  store i32 0, i32* %9, align 4
  br label %45

45:                                               ; preds = %57, %44
  %46 = load i32, i32* %9, align 4
  %47 = load i32, i32* %7, align 4
  %48 = icmp slt i32 %46, %47
  br i1 %48, label %49, label %60

49:                                               ; preds = %45
  %50 = load i32, i32* %8, align 4
  %51 = sext i32 %50 to i64
  %52 = getelementptr inbounds [100 x [100 x i32]], [100 x [100 x i32]]* %3, i64 0, i64 %51
  %53 = load i32, i32* %9, align 4
  %54 = sext i32 %53 to i64
  %55 = getelementptr inbounds [100 x i32], [100 x i32]* %52, i64 0, i64 %54
  %56 = call i32 (i8*, ...) @__isoc99_scanf(i8* getelementptr inbounds ([3 x i8], [3 x i8]* @.str.1, i64 0, i64 0), i32* %55)
  br label %57

57:                                               ; preds = %49
  %58 = load i32, i32* %9, align 4
  %59 = add nsw i32 %58, 1
  store i32 %59, i32* %9, align 4
  br label %45

60:                                               ; preds = %45
  br label %61

61:                                               ; preds = %60
  %62 = load i32, i32* %8, align 4
  %63 = add nsw i32 %62, 1
  store i32 %63, i32* %8, align 4
  br label %40

64:                                               ; preds = %40
  store i32 0, i32* %8, align 4
  br label %65

65:                                               ; preds = %115, %64
  %66 = load i32, i32* %8, align 4
  %67 = load i32, i32* %4, align 4
  %68 = icmp slt i32 %66, %67
  br i1 %68, label %69, label %118

69:                                               ; preds = %65
  store i32 0, i32* %9, align 4
  br label %70

70:                                               ; preds = %110, %69
  %71 = load i32, i32* %9, align 4
  %72 = load i32, i32* %7, align 4
  %73 = icmp slt i32 %71, %72
  br i1 %73, label %74, label %113

74:                                               ; preds = %70
  store i32 0, i32* %11, align 4
  br label %75

75:                                               ; preds = %97, %74
  %76 = load i32, i32* %11, align 4
  %77 = load i32, i32* %5, align 4
  %78 = icmp slt i32 %76, %77
  br i1 %78, label %79, label %100

79:                                               ; preds = %75
  %80 = load i32, i32* %10, align 4
  %81 = load i32, i32* %8, align 4
  %82 = sext i32 %81 to i64
  %83 = getelementptr inbounds [100 x [100 x i32]], [100 x [100 x i32]]* %2, i64 0, i64 %82
  %84 = load i32, i32* %11, align 4
  %85 = sext i32 %84 to i64
  %86 = getelementptr inbounds [100 x i32], [100 x i32]* %83, i64 0, i64 %85
  %87 = load i32, i32* %86, align 4
  %88 = load i32, i32* %11, align 4
  %89 = sext i32 %88 to i64
  %90 = getelementptr inbounds [100 x [100 x i32]], [100 x [100 x i32]]* %3, i64 0, i64 %89
  %91 = load i32, i32* %9, align 4
  %92 = sext i32 %91 to i64
  %93 = getelementptr inbounds [100 x i32], [100 x i32]* %90, i64 0, i64 %92
  %94 = load i32, i32* %93, align 4
  %95 = mul nsw i32 %87, %94
  %96 = add nsw i32 %80, %95
  store i32 %96, i32* %10, align 4
  br label %97

97:                                               ; preds = %79
  %98 = load i32, i32* %11, align 4
  %99 = add nsw i32 %98, 1
  store i32 %99, i32* %11, align 4
  br label %75

100:                                              ; preds = %75
  %101 = load i32, i32* %12, align 4
  %102 = icmp eq i32 %101, 0
  br i1 %102, label %103, label %106

103:                                              ; preds = %100
  %104 = load i32, i32* %10, align 4
  %105 = call i32 (i8*, ...) @printf(i8* getelementptr inbounds ([3 x i8], [3 x i8]* @.str.1, i64 0, i64 0), i32 %104)
  store i32 1, i32* %12, align 4
  br label %109

106:                                              ; preds = %100
  %107 = load i32, i32* %10, align 4
  %108 = call i32 (i8*, ...) @printf(i8* getelementptr inbounds ([4 x i8], [4 x i8]* @.str.2, i64 0, i64 0), i32 %107)
  br label %109

109:                                              ; preds = %106, %103
  store i32 0, i32* %10, align 4
  br label %110

110:                                              ; preds = %109
  %111 = load i32, i32* %9, align 4
  %112 = add nsw i32 %111, 1
  store i32 %112, i32* %9, align 4
  br label %70

113:                                              ; preds = %70
  %114 = call i32 (i8*, ...) @printf(i8* getelementptr inbounds ([2 x i8], [2 x i8]* @.str.3, i64 0, i64 0))
  store i32 0, i32* %12, align 4
  br label %115

115:                                              ; preds = %113
  %116 = load i32, i32* %8, align 4
  %117 = add nsw i32 %116, 1
  store i32 %117, i32* %8, align 4
  br label %65

118:                                              ; preds = %65
  ret i32 0
}

declare dso_local i32 @__isoc99_scanf(i8*, ...) #1

declare dso_local i32 @printf(i8*, ...) #1


!llvm.module.flags = !{!0}
!llvm.ident = !{!1}

!0 = !{i32 1, !"wchar_size", i32 4}
!1 = !{!"clang version 10.0.0-4ubuntu1 "}
